target datalayout = "e-m:e-p270:32:32-p271:32:32-p272:64:64-i64:64-i128:128-f80:128-n8:16:32:64-S128"
target triple = "x86_64-pc-linux-gnu"

%struct._DlsMat = type { i32, i64, i64, i64, i64, i64, i64, ptr, i64, ptr }

; Function Attrs: nounwind uwtable
define void @bandGBTRS(ptr noundef %0, i64 noundef %1, i64 noundef %2, i64 noundef %3, ptr noundef %4, ptr noundef %5) #0 {
  %7 = alloca ptr, align 8
  %8 = alloca i64, align 8
  %9 = alloca i64, align 8
  %10 = alloca i64, align 8
  %11 = alloca ptr, align 8
  %12 = alloca ptr, align 8
  %13 = alloca i64, align 8
  %14 = alloca i64, align 8
  %15 = alloca i64, align 8
  %16 = alloca i64, align 8
  %17 = alloca i64, align 8
  %18 = alloca double, align 8
  %19 = alloca ptr, align 8
  store ptr %0, ptr %7, align 8, !tbaa !20
  store i64 %1, ptr %8, align 8, !tbaa !21
  store i64 %2, ptr %9, align 8, !tbaa !21
  store i64 %3, ptr %10, align 8, !tbaa !21
  store ptr %4, ptr %11, align 8, !tbaa !8
  store ptr %5, ptr %12, align 8, !tbaa !22
  call void @llvm.lifetime.start.p0(i64 8, ptr %13) #4
  call void @llvm.lifetime.start.p0(i64 8, ptr %14) #4
  call void @llvm.lifetime.start.p0(i64 8, ptr %15) #4
  call void @llvm.lifetime.start.p0(i64 8, ptr %16) #4
  call void @llvm.lifetime.start.p0(i64 8, ptr %17) #4
  call void @llvm.lifetime.start.p0(i64 8, ptr %18) #4
  call void @llvm.lifetime.start.p0(i64 8, ptr %19) #4
  store i64 0, ptr %13, align 8, !tbaa !21
  br label %20

20:                                               ; preds = %94, %6
  %21 = load i64, ptr %13, align 8, !tbaa !21
  %22 = load i64, ptr %8, align 8, !tbaa !21
  %23 = sub nsw i64 %22, 1
  %24 = icmp slt i64 %21, %23
  br i1 %24, label %25, label %97

25:                                               ; preds = %20
  %26 = load ptr, ptr %11, align 8, !tbaa !8
  %27 = load i64, ptr %13, align 8, !tbaa !21
  %28 = getelementptr inbounds i64, ptr %26, i64 %27
  %29 = load i64, ptr %28, align 8, !tbaa !21
  store i64 %29, ptr %14, align 8, !tbaa !21
  %30 = load ptr, ptr %12, align 8, !tbaa !22
  %31 = load i64, ptr %14, align 8, !tbaa !21
  %32 = getelementptr inbounds double, ptr %30, i64 %31
  %33 = load double, ptr %32, align 8, !tbaa !23
  store double %33, ptr %18, align 8, !tbaa !23
  %34 = load i64, ptr %14, align 8, !tbaa !21
  %35 = load i64, ptr %13, align 8, !tbaa !21
  %36 = icmp ne i64 %34, %35
  br i1 %36, label %37, label %49

37:                                               ; preds = %25
  %38 = load ptr, ptr %12, align 8, !tbaa !22
  %39 = load i64, ptr %13, align 8, !tbaa !21
  %40 = getelementptr inbounds double, ptr %38, i64 %39
  %41 = load double, ptr %40, align 8, !tbaa !23
  %42 = load ptr, ptr %12, align 8, !tbaa !22
  %43 = load i64, ptr %14, align 8, !tbaa !21
  %44 = getelementptr inbounds double, ptr %42, i64 %43
  store double %41, ptr %44, align 8, !tbaa !23
  %45 = load double, ptr %18, align 8, !tbaa !23
  %46 = load ptr, ptr %12, align 8, !tbaa !22
  %47 = load i64, ptr %13, align 8, !tbaa !21
  %48 = getelementptr inbounds double, ptr %46, i64 %47
  store double %45, ptr %48, align 8, !tbaa !23
  br label %49

49:                                               ; preds = %37, %25
  %50 = load ptr, ptr %7, align 8, !tbaa !20
  %51 = load i64, ptr %13, align 8, !tbaa !21
  %52 = getelementptr inbounds ptr, ptr %50, i64 %51
  %53 = load ptr, ptr %52, align 8, !tbaa !22
  %54 = load i64, ptr %9, align 8, !tbaa !21
  %55 = getelementptr inbounds double, ptr %53, i64 %54
  store ptr %55, ptr %19, align 8, !tbaa !22
  %56 = load i64, ptr %8, align 8, !tbaa !21
  %57 = sub nsw i64 %56, 1
  %58 = load i64, ptr %13, align 8, !tbaa !21
  %59 = load i64, ptr %10, align 8, !tbaa !21
  %60 = add nsw i64 %58, %59
  %61 = icmp slt i64 %57, %60
  br i1 %61, label %62, label %65

62:                                               ; preds = %49
  %63 = load i64, ptr %8, align 8, !tbaa !21
  %64 = sub nsw i64 %63, 1
  br label %69

65:                                               ; preds = %49
  %66 = load i64, ptr %13, align 8, !tbaa !21
  %67 = load i64, ptr %10, align 8, !tbaa !21
  %68 = add nsw i64 %66, %67
  br label %69

69:                                               ; preds = %65, %62
  %70 = phi i64 [ %64, %62 ], [ %68, %65 ]
  store i64 %70, ptr %17, align 8, !tbaa !21
  %71 = load i64, ptr %13, align 8, !tbaa !21
  %72 = add nsw i64 %71, 1
  store i64 %72, ptr %15, align 8, !tbaa !21
  br label %73

73:                                               ; preds = %90, %69
  %74 = load i64, ptr %15, align 8, !tbaa !21
  %75 = load i64, ptr %17, align 8, !tbaa !21
  %76 = icmp sle i64 %74, %75
  br i1 %76, label %77, label %93

77:                                               ; preds = %73
  %78 = load double, ptr %18, align 8, !tbaa !23
  %79 = load ptr, ptr %19, align 8, !tbaa !22
  %80 = load i64, ptr %15, align 8, !tbaa !21
  %81 = load i64, ptr %13, align 8, !tbaa !21
  %82 = sub nsw i64 %80, %81
  %83 = getelementptr inbounds double, ptr %79, i64 %82
  %84 = load double, ptr %83, align 8, !tbaa !23
  %85 = load ptr, ptr %12, align 8, !tbaa !22
  %86 = load i64, ptr %15, align 8, !tbaa !21
  %87 = getelementptr inbounds double, ptr %85, i64 %86
  %88 = load double, ptr %87, align 8, !tbaa !23
  %89 = call double @llvm.fmuladd.f64(double %78, double %84, double %88)
  store double %89, ptr %87, align 8, !tbaa !23
  br label %90

90:                                               ; preds = %77
  %91 = load i64, ptr %15, align 8, !tbaa !21
  %92 = add nsw i64 %91, 1
  store i64 %92, ptr %15, align 8, !tbaa !21
  br label %73, !llvm.loop !34

93:                                               ; preds = %73
  br label %94

94:                                               ; preds = %93
  %95 = load i64, ptr %13, align 8, !tbaa !21
  %96 = add nsw i64 %95, 1
  store i64 %96, ptr %13, align 8, !tbaa !21
  br label %20, !llvm.loop !35

97:                                               ; preds = %20
  %98 = load i64, ptr %8, align 8, !tbaa !21
  %99 = sub nsw i64 %98, 1
  store i64 %99, ptr %13, align 8, !tbaa !21
  br label %100

100:                                              ; preds = %156, %97
  %101 = load i64, ptr %13, align 8, !tbaa !21
  %102 = icmp sge i64 %101, 0
  br i1 %102, label %103, label %159

103:                                              ; preds = %100
  %104 = load ptr, ptr %7, align 8, !tbaa !20
  %105 = load i64, ptr %13, align 8, !tbaa !21
  %106 = getelementptr inbounds ptr, ptr %104, i64 %105
  %107 = load ptr, ptr %106, align 8, !tbaa !22
  %108 = load i64, ptr %9, align 8, !tbaa !21
  %109 = getelementptr inbounds double, ptr %107, i64 %108
  store ptr %109, ptr %19, align 8, !tbaa !22
  %110 = load i64, ptr %13, align 8, !tbaa !21
  %111 = load i64, ptr %9, align 8, !tbaa !21
  %112 = sub nsw i64 %110, %111
  %113 = icmp sgt i64 0, %112
  br i1 %113, label %114, label %115

114:                                              ; preds = %103
  br label %119

115:                                              ; preds = %103
  %116 = load i64, ptr %13, align 8, !tbaa !21
  %117 = load i64, ptr %9, align 8, !tbaa !21
  %118 = sub nsw i64 %116, %117
  br label %119

119:                                              ; preds = %115, %114
  %120 = phi i64 [ 0, %114 ], [ %118, %115 ]
  store i64 %120, ptr %16, align 8, !tbaa !21
  %121 = load ptr, ptr %19, align 8, !tbaa !22
  %122 = load double, ptr %121, align 8, !tbaa !23
  %123 = load ptr, ptr %12, align 8, !tbaa !22
  %124 = load i64, ptr %13, align 8, !tbaa !21
  %125 = getelementptr inbounds double, ptr %123, i64 %124
  %126 = load double, ptr %125, align 8, !tbaa !23
  %127 = fdiv double %126, %122
  store double %127, ptr %125, align 8, !tbaa !23
  %128 = load ptr, ptr %12, align 8, !tbaa !22
  %129 = load i64, ptr %13, align 8, !tbaa !21
  %130 = getelementptr inbounds double, ptr %128, i64 %129
  %131 = load double, ptr %130, align 8, !tbaa !23
  %132 = fneg double %131
  store double %132, ptr %18, align 8, !tbaa !23
  %133 = load i64, ptr %16, align 8, !tbaa !21
  store i64 %133, ptr %15, align 8, !tbaa !21
  br label %134

134:                                              ; preds = %152, %119
  %135 = load i64, ptr %15, align 8, !tbaa !21
  %136 = load i64, ptr %13, align 8, !tbaa !21
  %137 = sub nsw i64 %136, 1
  %138 = icmp sle i64 %135, %137
  br i1 %138, label %139, label %155

139:                                              ; preds = %134
  %140 = load double, ptr %18, align 8, !tbaa !23
  %141 = load ptr, ptr %19, align 8, !tbaa !22
  %142 = load i64, ptr %15, align 8, !tbaa !21
  %143 = load i64, ptr %13, align 8, !tbaa !21
  %144 = sub nsw i64 %142, %143
  %145 = getelementptr inbounds double, ptr %141, i64 %144
  %146 = load double, ptr %145, align 8, !tbaa !23
  %147 = load ptr, ptr %12, align 8, !tbaa !22
  %148 = load i64, ptr %15, align 8, !tbaa !21
  %149 = getelementptr inbounds double, ptr %147, i64 %148
  %150 = load double, ptr %149, align 8, !tbaa !23
  %151 = call double @llvm.fmuladd.f64(double %140, double %146, double %150)
  store double %151, ptr %149, align 8, !tbaa !23
  br label %152

152:                                              ; preds = %139
  %153 = load i64, ptr %15, align 8, !tbaa !21
  %154 = add nsw i64 %153, 1
  store i64 %154, ptr %15, align 8, !tbaa !21
  br label %134, !llvm.loop !36

155:                                              ; preds = %134
  br label %156

156:                                              ; preds = %155
  %157 = load i64, ptr %13, align 8, !tbaa !21
  %158 = add nsw i64 %157, -1
  store i64 %158, ptr %13, align 8, !tbaa !21
  br label %100, !llvm.loop !37

159:                                              ; preds = %100
  call void @llvm.lifetime.end.p0(i64 8, ptr %19) #4
  call void @llvm.lifetime.end.p0(i64 8, ptr %18) #4
  call void @llvm.lifetime.end.p0(i64 8, ptr %17) #4
  call void @llvm.lifetime.end.p0(i64 8, ptr %16) #4
  call void @llvm.lifetime.end.p0(i64 8, ptr %15) #4
  call void @llvm.lifetime.end.p0(i64 8, ptr %14) #4
  call void @llvm.lifetime.end.p0(i64 8, ptr %13) #4
  ret void
}

; Function Attrs: nounwind uwtable
define void @BandGBTRS(ptr noundef %0, ptr noundef %1, ptr noundef %2) #0 {
  %4 = alloca ptr, align 8
  %5 = alloca ptr, align 8
  %6 = alloca ptr, align 8
  store ptr %0, ptr %4, align 8, !tbaa !3
  store ptr %1, ptr %5, align 8, !tbaa !8
  store ptr %2, ptr %6, align 8, !tbaa !22
  %7 = load ptr, ptr %4, align 8, !tbaa !3
  %8 = getelementptr inbounds nuw %struct._DlsMat, ptr %7, i32 0, i32 9
  %9 = load ptr, ptr %8, align 8, !tbaa !10
  %10 = load ptr, ptr %4, align 8, !tbaa !3
  %11 = getelementptr inbounds nuw %struct._DlsMat, ptr %10, i32 0, i32 1
  %12 = load i64, ptr %11, align 8, !tbaa !16
  %13 = load ptr, ptr %4, align 8, !tbaa !3
  %14 = getelementptr inbounds nuw %struct._DlsMat, ptr %13, i32 0, i32 6
  %15 = load i64, ptr %14, align 8, !tbaa !19
  %16 = load ptr, ptr %4, align 8, !tbaa !3
  %17 = getelementptr inbounds nuw %struct._DlsMat, ptr %16, i32 0, i32 5
  %18 = load i64, ptr %17, align 8, !tbaa !18
  %19 = load ptr, ptr %5, align 8, !tbaa !8
  %20 = load ptr, ptr %6, align 8, !tbaa !22
  call void @bandGBTRS(ptr noundef %9, i64 noundef %12, i64 noundef %15, i64 noundef %18, ptr noundef %19, ptr noundef %20)
  ret void
}