; Function Attrs: nofree norecurse nosync nounwind memory(read, argmem: readwrite, inaccessiblemem: none) uwtable
define void @BandGBTRS(ptr noundef readonly captures(none) %0, ptr noundef readonly captures(none) %1, ptr noundef captures(none) %2) local_unnamed_addr #1 {
  %4 = getelementptr inbounds nuw i8, ptr %0, i64 72
  %5 = load ptr, ptr %4, align 8, !tbaa !3
  %6 = getelementptr inbounds nuw i8, ptr %0, i64 8
  %7 = load i64, ptr %6, align 8, !tbaa !12
  %8 = getelementptr inbounds nuw i8, ptr %0, i64 48
  %9 = load i64, ptr %8, align 8, !tbaa !15
  %10 = getelementptr inbounds nuw i8, ptr %0, i64 40
  %11 = load i64, ptr %10, align 8, !tbaa !14
  %12 = add i64 %7, -1
  %13 = icmp sgt i64 %7, 1
  br i1 %13, label %.lr.ph68.i, label %.preheader.i

.loopexit.i:                                      ; preds = %.lr.ph.i, %22
  %exitcond75.not.i = icmp eq i64 %27, %12
  br i1 %exitcond75.not.i, label %.preheader.i, label %.lr.ph68.i, !llvm.loop !27

.preheader.i:                                     ; preds = %.loopexit.i, %3
  %14 = icmp sgt i64 %7, 0
  br i1 %14, label %.lr.ph73.i, label %bandGBTRS.exit

.lr.ph68.i:                                       ; preds = %3, %.loopexit.i
  %.067.i = phi i64 [ %27, %.loopexit.i ], [ 0, %3 ]
  %15 = getelementptr inbounds nuw i64, ptr %1, i64 %.067.i
  %16 = load i64, ptr %15, align 8, !tbaa !22
  %17 = getelementptr inbounds double, ptr %2, i64 %16
  %18 = load double, ptr %17, align 8, !tbaa !17
  %.not.i = icmp eq i64 %16, %.067.i
  br i1 %.not.i, label %22, label %19

19:                                               ; preds = %.lr.ph68.i
  %20 = getelementptr inbounds nuw double, ptr %2, i64 %.067.i
  %21 = load double, ptr %20, align 8, !tbaa !17
  store double %21, ptr %17, align 8, !tbaa !17
  store double %18, ptr %20, align 8, !tbaa !17
  br label %22

22:                                               ; preds = %19, %.lr.ph68.i
  %23 = getelementptr inbounds nuw ptr, ptr %5, i64 %.067.i
  %24 = load ptr, ptr %23, align 8, !tbaa !16
  %25 = getelementptr inbounds double, ptr %24, i64 %9
  %26 = add nsw i64 %.067.i, %11
  %.not63.i = icmp sgt i64 %7, %26
  %..i = select i1 %.not63.i, i64 %26, i64 %12
  %27 = add nuw nsw i64 %.067.i, 1
  %.not6465.not.i = icmp slt i64 %.067.i, %..i
  br i1 %.not6465.not.i, label %.lr.ph.i, label %.loopexit.i

.lr.ph.i:                                         ; preds = %22, %.lr.ph.i
  %.05966.i = phi i64 [ %34, %.lr.ph.i ], [ %27, %22 ]
  %28 = sub nuw nsw i64 %.05966.i, %.067.i
  %29 = getelementptr inbounds double, ptr %25, i64 %28
  %30 = load double, ptr %29, align 8, !tbaa !17
  %31 = getelementptr inbounds nuw double, ptr %2, i64 %.05966.i
  %32 = load double, ptr %31, align 8, !tbaa !17
  %33 = tail call double @llvm.fmuladd.f64(double %18, double %30, double %32)
  store double %33, ptr %31, align 8, !tbaa !17
  %34 = add nuw i64 %.05966.i, 1
  %exitcond.not.i = icmp eq i64 %.05966.i, %..i
  br i1 %exitcond.not.i, label %.loopexit.i, label %.lr.ph.i, !llvm.loop !28

.lr.ph73.i:                                       ; preds = %.preheader.i, %._crit_edge.i
  %.172.i = phi i64 [ %52, %._crit_edge.i ], [ %12, %.preheader.i ]
  %35 = getelementptr inbounds nuw ptr, ptr %5, i64 %.172.i
  %36 = load ptr, ptr %35, align 8, !tbaa !16
  %37 = getelementptr inbounds double, ptr %36, i64 %9
  %38 = sub nsw i64 %.172.i, %9
  %39 = tail call i64 @llvm.smax.i64(i64 %38, i64 0)
  %40 = load double, ptr %37, align 8, !tbaa !17
  %41 = getelementptr inbounds nuw double, ptr %2, i64 %.172.i
  %42 = load double, ptr %41, align 8, !tbaa !17
  %43 = fdiv double %42, %40
  store double %43, ptr %41, align 8, !tbaa !17
  %44 = fneg double %43
  %.not.not69.i = icmp samesign ult i64 %39, %.172.i
  br i1 %.not.not69.i, label %.lr.ph71.i, label %._crit_edge.i

.lr.ph71.i:                                       ; preds = %.lr.ph73.i, %.lr.ph71.i
  %.16070.i = phi i64 [ %51, %.lr.ph71.i ], [ %39, %.lr.ph73.i ]
  %45 = sub nsw i64 %.16070.i, %.172.i
  %46 = getelementptr inbounds double, ptr %37, i64 %45
  %47 = load double, ptr %46, align 8, !tbaa !17
  %48 = getelementptr inbounds nuw double, ptr %2, i64 %.16070.i
  %49 = load double, ptr %48, align 8, !tbaa !17
  %50 = tail call double @llvm.fmuladd.f64(double %44, double %47, double %49)
  store double %50, ptr %48, align 8, !tbaa !17
  %51 = add nuw nsw i64 %.16070.i, 1
  %.not.not.i = icmp slt i64 %51, %.172.i
  br i1 %.not.not.i, label %.lr.ph71.i, label %._crit_edge.i, !llvm.loop !29

._crit_edge.i:                                    ; preds = %.lr.ph71.i, %.lr.ph73.i
  %52 = add nsw i64 %.172.i, -1
  %53 = icmp sgt i64 %.172.i, 0
  br i1 %53, label %.lr.ph73.i, label %bandGBTRS.exit, !llvm.loop !30

bandGBTRS.exit:                                   ; preds = %._crit_edge.i, %.preheader.i
  ret void
}